(dp0
S'Sausage'
p1
F12.0
sS'carrot'
p2
F8.4
sS'fff'
p3
F666.0
sS'hjk'
p4
F87.0
sS'lime'
p5
F33.0
sS'qqqq'
p6
F111.0
sS'pp'
p7
F9.0
sS'lemon'
p8
F2.2
sS'peach'
p9
F98.0
sS'cherry'
p10
F21.0
sS'asdfg'
p11
F23.0
sS'yam'
p12
F6.0
sS'banana'
p13
F7.6
sS'ddd'
p14
F3.0
sS'ger'
p15
F5.0
sS'aubergine'
p16
F12.3
sS'cccc'
p17
F4.0
sS'ggg'
p18
F4.0
sS'wpo'
p19
F65.0
sS'zxzx'
p20
F2.0
sS'prunes'
p21
F6.8
sS'asasas'
p22
F1.0
sS'yhn'
p23
F34.0
sS'a'
p24
F1.0
sS'kkkk'
p25
F77.0
sS'c'
p26
F3.0
sS'b'
p27
F2.0
sS'e'
p28
F5.0
sS'd'
p29
F4.0
sS'f'
p30
F6.0
sS'plum'
p31
F3.3
sS'oooo'
p32
F8.0
sS'wewewew'
p33
F233.0
sS'beans'
p34
F4.45
sS'hello'
p35
F2000.0
s.